; Function Attrs: mustprogress nounwind uwtable
define hidden noundef i32 @_ZNK11BoxLockNode4hashEv(ptr noundef nonnull align 8 dereferenceable(156) %0) unnamed_addr #2 align 2 {
  %2 = load i8, ptr @EliminateNestedLocks, align 1
  %3 = trunc i8 %2 to i1
  br i1 %3, label %24, label %4

4:                                                ; preds = %1
  %5 = tail call noundef i32 @_ZNK4Node4hashEv(ptr noundef nonnull align 8 dereferenceable(52) %0) #8
  %6 = getelementptr inbounds i8, ptr %0, i64 52
  %7 = load i32, ptr %6, align 4
  %8 = add i32 %7, %5
  %9 = getelementptr inbounds i8, ptr %0, i64 152
  %10 = load i32, ptr %9, align 8
  %11 = icmp eq i32 %10, 5
  br i1 %11, label %12, label %21

12:                                               ; preds = %4
  %13 = tail call align 8 ptr @llvm.threadlocal.address.p0(ptr align 8 @_ZN6Thread12_thr_currentE)
  %14 = load ptr, ptr %13, align 8
  %15 = getelementptr inbounds i8, ptr %14, i64 1808
  %16 = load ptr, ptr %15, align 8
  %17 = getelementptr inbounds i8, ptr %16, i64 128
  %18 = load ptr, ptr %17, align 8
  %19 = getelementptr inbounds i8, ptr %18, i64 96
  %20 = load i32, ptr %19, align 8
  br label %21

21:                                               ; preds = %4, %12
  %22 = phi i32 [ %20, %12 ], [ 0, %4 ]
  %23 = add i32 %8, %22
  br label %24

24:                                               ; preds = %1, %21
  %.0 = phi i32 [ %23, %21 ], [ 0, %1 ]
  ret i32 %.0
}